
program.elf:     file format elf32-littleriscv


Disassembly of section .text:

00000000 <_start>:
   0:	0000f137          	lui	x2,0xf
   4:	008000ef          	jal	c <main>

00000008 <_halt>:
   8:	0000006f          	j	8 <_halt>

0000000c <main>:
   c:	fe010113          	addi	x2,x2,-32 # efe0 <main+0xefd4>
  10:	000027b7          	lui	x15,0x2
  14:	03700713          	li	x14,55
  18:	00e7a023          	sw	x14,0(x15) # 2000 <main+0x1ff4>
  1c:	00900793          	li	x15,9
  20:	00100713          	li	x14,1
  24:	00000693          	li	x13,0
  28:	00070613          	mv	x12,x14
  2c:	00d70733          	add	x14,x14,x13
  30:	fff78793          	addi	x15,x15,-1
  34:	00060693          	mv	x13,x12
  38:	fe0798e3          	bnez	x15,28 <main+0x1c>
  3c:	000026b7          	lui	x13,0x2
  40:	00e6a223          	sw	x14,4(x13) # 2004 <main+0x1ff8>
  44:	00002737          	lui	x14,0x2
  48:	10000693          	li	x13,256
  4c:	00d72423          	sw	x13,8(x14) # 2008 <main+0x1ffc>
  50:	0c800713          	li	x14,200
  54:	00072303          	lw	x6,0(x14)
  58:	00472883          	lw	x17,4(x14)
  5c:	00872803          	lw	x16,8(x14)
  60:	00c72503          	lw	x10,12(x14)
  64:	01072583          	lw	x11,16(x14)
  68:	01472603          	lw	x12,20(x14)
  6c:	01872683          	lw	x13,24(x14)
  70:	01c72703          	lw	x14,28(x14)
  74:	00612023          	sw	x6,0(x2)
  78:	01112223          	sw	x17,4(x2)
  7c:	01012423          	sw	x16,8(x2)
  80:	00a12623          	sw	x10,12(x2)
  84:	00b12823          	sw	x11,16(x2)
  88:	00c12a23          	sw	x12,20(x2)
  8c:	00d12c23          	sw	x13,24(x2)
  90:	00e12e23          	sw	x14,28(x2)
  94:	00010713          	mv	x14,x2
  98:	02010613          	addi	x12,x2,32
  9c:	00c0006f          	j	a8 <main+0x9c>
  a0:	00470713          	addi	x14,x14,4
  a4:	00c70a63          	beq	x14,x12,b8 <main+0xac>
  a8:	00072683          	lw	x13,0(x14)
  ac:	fed7fae3          	bgeu	x15,x13,a0 <main+0x94>
  b0:	00068793          	mv	x15,x13
  b4:	fedff06f          	j	a0 <main+0x94>
  b8:	00002737          	lui	x14,0x2
  bc:	00f72623          	sw	x15,12(x14) # 200c <main+0x2000>
  c0:	02010113          	addi	x2,x2,32
  c4:	00008067          	ret
  c8:	00000003          	lb	x0,0(x0) # 0 <_start>
  cc:	0001                	.insn	2, 0x0001
  ce:	0000                	.insn	2, 0x
  d0:	0004                	.insn	2, 0x0004
  d2:	0000                	.insn	2, 0x
  d4:	0001                	.insn	2, 0x0001
  d6:	0000                	.insn	2, 0x
  d8:	0005                	.insn	2, 0x0005
  da:	0000                	.insn	2, 0x
  dc:	0009                	.insn	2, 0x0009
  de:	0000                	.insn	2, 0x
  e0:	0002                	.insn	2, 0x0002
  e2:	0000                	.insn	2, 0x
  e4:	0006                	.insn	2, 0x0006
	...
